target datalayout = "e-m:e-p270:32:32-p271:32:32-p272:64:64-i64:64-i128:128-f80:128-n8:16:32:64-S128"
target triple = "x86_64-pc-linux-gnu"

%struct._e_guid_t = type { i32, i16, i16, [8 x i8] }
%struct.nstime_t = type { i64, i32 }
%struct._smb2_info_t = type { i16, i32, i32, i32, i64, i64, i32, ptr, ptr, ptr, ptr, ptr, ptr, ptr }
%struct._smb2_saved_info_t = type { i8, i8, i64, i32, i32, %struct.nstime_t, ptr, ptr, ptr, %struct._e_ctx_hnd, ptr, i64, i32, ptr, i32, i32, i16, ptr, %struct._e_guid_t, i32, i32, ptr }
%struct._e_ctx_hnd = type { i32, %struct._e_guid_t }

; Function Attrs: nounwind null_pointer_is_valid sspstrong uwtable
define internal ptr @smb2_pipe_get_fid_info(ptr noundef %0) #3 {
  %2 = alloca ptr, align 8
  %3 = alloca ptr, align 8
  %4 = alloca ptr, align 8
  %5 = alloca i32, align 4
  store ptr %0, ptr %3, align 8
  call void @llvm.lifetime.start.p0(i64 8, ptr %4) #13
  store ptr null, ptr %4, align 8
  %6 = load ptr, ptr %3, align 8
  %7 = icmp eq ptr %6, null
  br i1 %7, label %8, label %9

8:                                                ; preds = %1
  store ptr null, ptr %2, align 8
  store i32 1, ptr %5, align 4
  br label %36

9:                                                ; preds = %1
  %10 = load ptr, ptr %3, align 8
  %11 = getelementptr inbounds nuw %struct._smb2_info_t, ptr %10, i32 0, i32 12
  %12 = load ptr, ptr %11, align 8
  %13 = icmp ne ptr %12, null
  br i1 %13, label %14, label %18

14:                                               ; preds = %9
  %15 = load ptr, ptr %3, align 8
  %16 = getelementptr inbounds nuw %struct._smb2_info_t, ptr %15, i32 0, i32 12
  %17 = load ptr, ptr %16, align 8
  store ptr %17, ptr %4, align 8
  br label %30

18:                                               ; preds = %9
  %19 = load ptr, ptr %3, align 8
  %20 = getelementptr inbounds nuw %struct._smb2_info_t, ptr %19, i32 0, i32 9
  %21 = load ptr, ptr %20, align 8
  %22 = icmp ne ptr %21, null
  br i1 %22, label %23, label %29

23:                                               ; preds = %18
  %24 = load ptr, ptr %3, align 8
  %25 = getelementptr inbounds nuw %struct._smb2_info_t, ptr %24, i32 0, i32 9
  %26 = load ptr, ptr %25, align 8
  %27 = getelementptr inbounds nuw %struct._smb2_saved_info_t, ptr %26, i32 0, i32 8
  %28 = load ptr, ptr %27, align 8
  store ptr %28, ptr %4, align 8
  br label %29

29:                                               ; preds = %23, %18
  br label %30

30:                                               ; preds = %29, %14
  %31 = load ptr, ptr %4, align 8
  %32 = icmp eq ptr %31, null
  br i1 %32, label %33, label %34

33:                                               ; preds = %30
  store ptr null, ptr %2, align 8
  store i32 1, ptr %5, align 4
  br label %36

34:                                               ; preds = %30
  %35 = load ptr, ptr %4, align 8
  store ptr %35, ptr %2, align 8
  store i32 1, ptr %5, align 4
  br label %36

36:                                               ; preds = %34, %33, %8
  call void @llvm.lifetime.end.p0(i64 8, ptr %4) #13
  %37 = load ptr, ptr %2, align 8
  ret ptr %37
}

; Function Attrs: null_pointer_is_valid sspstrong uwtable
define internal void @smb2_pipe_set_file_id(ptr noundef %0, ptr noundef %1) #0 {
  %3 = alloca ptr, align 8
  %4 = alloca ptr, align 8
  %5 = alloca i64, align 8
  %6 = alloca ptr, align 8
  %7 = alloca i32, align 4
  store ptr %0, ptr %3, align 8
  store ptr %1, ptr %4, align 8
  call void @llvm.lifetime.start.p0(i64 8, ptr %5) #13
  call void @llvm.lifetime.start.p0(i64 8, ptr %6) #13
  store ptr null, ptr %6, align 8
  %8 = load ptr, ptr %4, align 8
  %9 = call ptr @smb2_pipe_get_fid_info(ptr noundef %8)
  store ptr %9, ptr %6, align 8
  %10 = load ptr, ptr %6, align 8
  %11 = icmp eq ptr %10, null
  br i1 %11, label %12, label %13

12:                                               ; preds = %2
  store i32 1, ptr %7, align 4
  br label %20

13:                                               ; preds = %2
  %14 = load ptr, ptr %6, align 8
  %15 = ptrtoint ptr %14 to i64
  %16 = trunc i64 %15 to i32
  %17 = zext i32 %16 to i64
  store i64 %17, ptr %5, align 8
  %18 = load i64, ptr %5, align 8
  %19 = load ptr, ptr %3, align 8
  call void @dcerpc_set_transport_salt(i64 noundef %18, ptr noundef %19)
  store i32 0, ptr %7, align 4
  br label %20

20:                                               ; preds = %13, %12
  call void @llvm.lifetime.end.p0(i64 8, ptr %6) #13
  call void @llvm.lifetime.end.p0(i64 8, ptr %5) #13
  %21 = load i32, ptr %7, align 4
  switch i32 %21, label %23 [
    i32 0, label %22
    i32 1, label %22
  ]

22:                                               ; preds = %20, %20
  ret void

23:                                               ; preds = %20
  unreachable
}

; Function Attrs: null_pointer_is_valid sspstrong uwtable
define internal void @dissect_smb2_ioctl_data_in(ptr noundef %0, ptr noundef %1, ptr noundef %2, ptr noundef %3) #0 {
  %5 = alloca ptr, align 8
  %6 = alloca ptr, align 8
  %7 = alloca ptr, align 8
  %8 = alloca ptr, align 8
  store ptr %0, ptr %5, align 8
  store ptr %1, ptr %6, align 8
  store ptr %2, ptr %7, align 8
  store ptr %3, ptr %8, align 8
  %9 = load ptr, ptr %6, align 8
  %10 = load ptr, ptr %8, align 8
  call void @smb2_pipe_set_file_id(ptr noundef %9, ptr noundef %10)
  %11 = load ptr, ptr %5, align 8
  %12 = load ptr, ptr %6, align 8
  %13 = load ptr, ptr %7, align 8
  %14 = load ptr, ptr %8, align 8
  %15 = getelementptr inbounds nuw %struct._smb2_info_t, ptr %14, i32 0, i32 13
  %16 = load ptr, ptr %15, align 8
  %17 = load ptr, ptr %8, align 8
  %18 = getelementptr inbounds nuw %struct._smb2_info_t, ptr %17, i32 0, i32 1
  %19 = load i32, ptr %18, align 4
  %20 = load ptr, ptr %8, align 8
  call void @dissect_smb2_ioctl_data(ptr noundef %11, ptr noundef %12, ptr noundef %13, ptr noundef %16, i32 noundef %19, i1 noundef zeroext true, ptr noundef %20)
  ret void
}