; Function Attrs: null_pointer_is_valid sspstrong uwtable
define internal void @dissect_smb2_ioctl_data_in(ptr noundef %0, ptr noundef %1, ptr noundef %2, ptr noundef %3) #0 {
  %5 = icmp eq ptr %3, null
  br i1 %5, label %smb2_pipe_set_file_id.exit, label %6

6:                                                ; preds = %4
  %7 = getelementptr inbounds nuw i8, ptr %3, i64 80
  %8 = load ptr, ptr %7, align 8
  %.not.i.i = icmp eq ptr %8, null
  br i1 %.not.i.i, label %9, label %smb2_pipe_get_fid_info.exit.thread5.i

9:                                                ; preds = %6
  %10 = getelementptr inbounds nuw i8, ptr %3, i64 56
  %11 = load ptr, ptr %10, align 8
  %.not12.i.i = icmp eq ptr %11, null
  br i1 %.not12.i.i, label %smb2_pipe_set_file_id.exit, label %smb2_pipe_get_fid_info.exit.i

smb2_pipe_get_fid_info.exit.i:                    ; preds = %9
  %12 = getelementptr inbounds nuw i8, ptr %11, i64 56
  %13 = load ptr, ptr %12, align 8
  %14 = icmp eq ptr %13, null
  br i1 %14, label %smb2_pipe_set_file_id.exit, label %smb2_pipe_get_fid_info.exit.thread5.i

smb2_pipe_get_fid_info.exit.thread5.i:            ; preds = %smb2_pipe_get_fid_info.exit.i, %6
  %.08.i7.i = phi ptr [ %13, %smb2_pipe_get_fid_info.exit.i ], [ %8, %6 ]
  %15 = ptrtoint ptr %.08.i7.i to i64
  %16 = and i64 %15, 4294967295
  tail call void @dcerpc_set_transport_salt(i64 noundef %16, ptr noundef %1)
  br label %smb2_pipe_set_file_id.exit

smb2_pipe_set_file_id.exit:                       ; preds = %4, %9, %smb2_pipe_get_fid_info.exit.i, %smb2_pipe_get_fid_info.exit.thread5.i
  %17 = getelementptr inbounds nuw i8, ptr %3, i64 88
  %18 = load ptr, ptr %17, align 8
  %19 = getelementptr inbounds nuw i8, ptr %3, i64 4
  %20 = load i32, ptr %19, align 4
  tail call void @dissect_smb2_ioctl_data(ptr noundef %0, ptr noundef %1, ptr noundef %2, ptr noundef %18, i32 noundef %20, i1 noundef zeroext true, ptr noundef %3)
  ret void
}